; Function Attrs: mustprogress uwtable
define void @_ZN2cv3hal6sub16uEPKtmS2_mPtmiiPv(ptr nocapture noundef readonly %0, i64 noundef %1, ptr nocapture noundef readonly %2, i64 noundef %3, ptr nocapture noundef writeonly %4, i64 noundef %5, i32 noundef %6, i32 noundef %7, ptr nocapture noundef readnone %8) local_unnamed_addr #0 personality ptr @__gxx_personality_v0 {
  %10 = alloca %"class.cv::utils::trace::details::Region", align 8
  %11 = alloca %"class.cv::utils::trace::details::Region", align 8
  call void @_ZN2cv5utils5trace7details6RegionC1ERKNS3_21LocationStaticStorageE(ptr noundef nonnull align 8 dereferenceable(12) %11, ptr noundef nonnull align 8 dereferenceable(32) @_ZZN2cv3hal6sub16uEPKtmS2_mPtmiiPvE25__cv_trace_location_fn542)
  call void @llvm.lifetime.start.p0(i64 16, ptr nonnull %10)
  invoke void @_ZN2cv5utils5trace7details6RegionC1ERKNS3_21LocationStaticStorageE(ptr noundef nonnull align 8 dereferenceable(12) %10, ptr noundef nonnull align 8 dereferenceable(32) @_ZZN2cv3hal12cpu_baseline6sub16uEPKtmS3_mPtmiiE25__cv_trace_location_fn542)
          to label %.noexc unwind label %44

.noexc:                                           ; preds = %9
  %12 = lshr i64 %1, 1
  %13 = lshr i64 %3, 1
  %14 = lshr i64 %5, 1
  %.not23.i.i = icmp ne i32 %7, 0
  %15 = icmp sgt i32 %6, 0
  %or.cond.i.i = and i1 %15, %.not23.i.i
  br i1 %or.cond.i.i, label %.preheader.us.preheader.i.i, label %_ZN2cv3hal12cpu_baselineL8bin_loopINS1_6op_subEtNS_12hal_baseline5v_regItLi8EEEEEvPKT0_mS9_mPS7_mii.exit.i

.preheader.us.preheader.i.i:                      ; preds = %.noexc
  %wide.trip.count.i.i = zext nneg i32 %6 to i64
  br label %.preheader.us.i.i

.preheader.us.i.i:                                ; preds = %._crit_edge.us.i.i, %.preheader.us.preheader.i.i
  %.in.i.i = phi i32 [ %27, %._crit_edge.us.i.i ], [ %7, %.preheader.us.preheader.i.i ]
  %.01926.us.i.i = phi ptr [ %28, %._crit_edge.us.i.i ], [ %0, %.preheader.us.preheader.i.i ]
  %.02025.us.i.i = phi ptr [ %30, %._crit_edge.us.i.i ], [ %4, %.preheader.us.preheader.i.i ]
  %.02124.us.i.i = phi ptr [ %29, %._crit_edge.us.i.i ], [ %2, %.preheader.us.preheader.i.i ]
  br label %16

16:                                               ; preds = %16, %.preheader.us.i.i
  %indvars.iv.i.i = phi i64 [ 0, %.preheader.us.i.i ], [ %indvars.iv.next.i.i, %16 ]
  %17 = getelementptr inbounds i16, ptr %.01926.us.i.i, i64 %indvars.iv.i.i
  %18 = load i16, ptr %17, align 2
  %19 = getelementptr inbounds i16, ptr %.02124.us.i.i, i64 %indvars.iv.i.i
  %20 = load i16, ptr %19, align 2
  %21 = zext i16 %18 to i32
  %22 = zext i16 %20 to i32
  %23 = sub nsw i32 %21, %22
  %24 = call i32 @llvm.smax.i32(i32 %23, i32 0)
  %25 = trunc nuw i32 %24 to i16
  %26 = getelementptr inbounds i16, ptr %.02025.us.i.i, i64 %indvars.iv.i.i
  store i16 %25, ptr %26, align 2
  %indvars.iv.next.i.i = add nuw nsw i64 %indvars.iv.i.i, 1
  %exitcond.not.i.i = icmp eq i64 %indvars.iv.next.i.i, %wide.trip.count.i.i
  br i1 %exitcond.not.i.i, label %._crit_edge.us.i.i, label %16, !llvm.loop !24

._crit_edge.us.i.i:                               ; preds = %16
  %27 = add nsw i32 %.in.i.i, -1
  %28 = getelementptr inbounds i16, ptr %.01926.us.i.i, i64 %12
  %29 = getelementptr inbounds i16, ptr %.02124.us.i.i, i64 %13
  %30 = getelementptr inbounds i16, ptr %.02025.us.i.i, i64 %14
  %.not.us.i.i = icmp eq i32 %27, 0
  br i1 %.not.us.i.i, label %_ZN2cv3hal12cpu_baselineL8bin_loopINS1_6op_subEtNS_12hal_baseline5v_regItLi8EEEEEvPKT0_mS9_mPS7_mii.exit.i, label %.preheader.us.i.i, !llvm.loop !25

_ZN2cv3hal12cpu_baselineL8bin_loopINS1_6op_subEtNS_12hal_baseline5v_regItLi8EEEEEvPKT0_mS9_mPS7_mii.exit.i: ; preds = %._crit_edge.us.i.i, %.noexc
  %31 = getelementptr inbounds i8, ptr %10, i64 8
  %32 = load i32, ptr %31, align 8
  %.not.i.i = icmp eq i32 %32, 0
  br i1 %.not.i.i, label %37, label %33

33:                                               ; preds = %_ZN2cv3hal12cpu_baselineL8bin_loopINS1_6op_subEtNS_12hal_baseline5v_regItLi8EEEEEvPKT0_mS9_mPS7_mii.exit.i
  invoke void @_ZN2cv5utils5trace7details6Region7destroyEv(ptr noundef nonnull align 8 dereferenceable(12) %10)
          to label %37 unwind label %34

34:                                               ; preds = %33
  %35 = landingpad { ptr, i32 }
          catch ptr null
  %36 = extractvalue { ptr, i32 } %35, 0
  call void @__clang_call_terminate(ptr %36) #11
  unreachable

37:                                               ; preds = %33, %_ZN2cv3hal12cpu_baselineL8bin_loopINS1_6op_subEtNS_12hal_baseline5v_regItLi8EEEEEvPKT0_mS9_mPS7_mii.exit.i
  call void @llvm.lifetime.end.p0(i64 16, ptr nonnull %10)
  %38 = getelementptr inbounds i8, ptr %11, i64 8
  %39 = load i32, ptr %38, align 8
  %.not.i = icmp eq i32 %39, 0
  br i1 %.not.i, label %_ZN2cv5utils5trace7details6RegionD2Ev.exit, label %40

40:                                               ; preds = %37
  invoke void @_ZN2cv5utils5trace7details6Region7destroyEv(ptr noundef nonnull align 8 dereferenceable(12) %11)
          to label %_ZN2cv5utils5trace7details6RegionD2Ev.exit unwind label %41

41:                                               ; preds = %40
  %42 = landingpad { ptr, i32 }
          catch ptr null
  %43 = extractvalue { ptr, i32 } %42, 0
  call void @__clang_call_terminate(ptr %43) #11
  unreachable

_ZN2cv5utils5trace7details6RegionD2Ev.exit:       ; preds = %37, %40
  ret void

44:                                               ; preds = %9
  %45 = landingpad { ptr, i32 }
          cleanup
  call void @_ZN2cv5utils5trace7details6RegionD2Ev(ptr noundef nonnull align 8 dereferenceable(12) %11) #12
  resume { ptr, i32 } %45
}